target datalayout = "e-m:e-p270:32:32-p271:32:32-p272:64:64-i64:64-i128:128-f80:128-n8:16:32:64-S128"
target triple = "x86_64-pc-linux-gnu"

%"struct.llvm::AnalysisKey" = type { [8 x i8] }
%"class.llvm::SmallVectorBase" = type { ptr, i32, i32 }
%"class.llvm::InnerAnalysisManagerProxy" = type { ptr }
%"class.llvm::InnerAnalysisManagerProxy<llvm::AnalysisManager<Loop, LoopStandardAnalysisResults &>, llvm::Function>::Result" = type <{ ptr, ptr, i8, [7 x i8] }>
%"struct.llvm::detail::AnalysisResultModel.257" = type { %"struct.llvm::detail::AnalysisResultConcept.214", %"class.llvm::LoopInfo" }
%"struct.llvm::detail::AnalysisResultConcept.214" = type { ptr }
%"class.llvm::LoopInfo" = type { %"class.llvm::LoopInfoBase" }
%"class.llvm::LoopInfoBase" = type { %"class.llvm::DenseMap.85", %"class.std::vector", %"class.llvm::BumpPtrAllocatorImpl" }
%"class.llvm::DenseMap.85" = type <{ ptr, i32, i32, i32, [4 x i8] }>
%"class.std::vector" = type { %"struct.std::_Vector_base" }
%"struct.std::_Vector_base" = type { %"struct.std::_Vector_base<llvm::Loop *, std::allocator<llvm::Loop *>>::_Vector_impl" }
%"struct.std::_Vector_base<llvm::Loop *, std::allocator<llvm::Loop *>>::_Vector_impl" = type { %"struct.std::_Vector_base<llvm::Loop *, std::allocator<llvm::Loop *>>::_Vector_impl_data" }
%"struct.std::_Vector_base<llvm::Loop *, std::allocator<llvm::Loop *>>::_Vector_impl_data" = type { ptr, ptr, ptr }
%"class.llvm::BumpPtrAllocatorImpl" = type { ptr, ptr, %"class.llvm::SmallVector.89", %"class.llvm::SmallVector.94", i64, i64 }
%"class.llvm::SmallVector.89" = type { %"class.llvm::SmallVectorImpl.90", %"struct.llvm::SmallVectorStorage.93" }
%"class.llvm::SmallVectorImpl.90" = type { %"class.llvm::SmallVectorTemplateBase.91" }
%"class.llvm::SmallVectorTemplateBase.91" = type { %"class.llvm::SmallVectorTemplateCommon.92" }
%"class.llvm::SmallVectorTemplateCommon.92" = type { %"class.llvm::SmallVectorBase" }
%"struct.llvm::SmallVectorStorage.93" = type { [32 x i8] }
%"class.llvm::SmallVector.94" = type { %"class.llvm::SmallVectorImpl.95" }
%"class.llvm::SmallVectorImpl.95" = type { %"class.llvm::SmallVectorTemplateBase.96" }
%"class.llvm::SmallVectorTemplateBase.96" = type { %"class.llvm::SmallVectorTemplateCommon.97" }
%"class.llvm::SmallVectorTemplateCommon.97" = type { %"class.llvm::SmallVectorBase" }

@_ZN4llvm12LoopAnalysis3KeyE = external global %"struct.llvm::AnalysisKey", align 8

; Function Attrs: mustprogress nounwind uwtable
define linkonce_odr hidden noundef ptr @_ZN4llvm17AnalysisInfoMixinINS_12LoopAnalysisEE2IDEv() #0 comdat align 2 {
  ret ptr @_ZN4llvm12LoopAnalysis3KeyE
}

; Function Attrs: mustprogress nounwind uwtable
define linkonce_odr hidden void @_ZN4llvm25InnerAnalysisManagerProxyINS_15AnalysisManagerINS_4LoopEJRNS_27LoopStandardAnalysisResultsEEEENS_8FunctionEJEE6ResultC2ERS5_RNS_8LoopInfoE(ptr noundef nonnull align 8 dereferenceable(17) %0, ptr noundef nonnull align 8 dereferenceable(72) %1, ptr noundef nonnull align 8 dereferenceable(144) %2) unnamed_addr #0 comdat align 2 {
  %4 = alloca ptr, align 8
  %5 = alloca ptr, align 8
  %6 = alloca ptr, align 8
  store ptr %0, ptr %4, align 8
  store ptr %1, ptr %5, align 8
  store ptr %2, ptr %6, align 8
  %7 = load ptr, ptr %4, align 8
  %8 = getelementptr inbounds nuw %"class.llvm::InnerAnalysisManagerProxy<llvm::AnalysisManager<Loop, LoopStandardAnalysisResults &>, llvm::Function>::Result", ptr %7, i32 0, i32 0
  %9 = load ptr, ptr %5, align 8
  store ptr %9, ptr %8, align 8
  %10 = getelementptr inbounds nuw %"class.llvm::InnerAnalysisManagerProxy<llvm::AnalysisManager<Loop, LoopStandardAnalysisResults &>, llvm::Function>::Result", ptr %7, i32 0, i32 1
  %11 = load ptr, ptr %6, align 8
  store ptr %11, ptr %10, align 8
  %12 = getelementptr inbounds nuw %"class.llvm::InnerAnalysisManagerProxy<llvm::AnalysisManager<Loop, LoopStandardAnalysisResults &>, llvm::Function>::Result", ptr %7, i32 0, i32 2
  store i8 0, ptr %12, align 8
  ret void
}

; Function Attrs: mustprogress nounwind uwtable
define linkonce_odr hidden noundef nonnull align 8 dereferenceable(144) ptr @_ZN4llvm15AnalysisManagerINS_8FunctionEJEE9getResultINS_12LoopAnalysisEEERNT_6ResultERS1_(ptr noundef nonnull align 8 dereferenceable(72) %0, ptr noundef nonnull align 8 dereferenceable(136) %1) #0 comdat align 2 {
  %3 = alloca ptr, align 8
  %4 = alloca ptr, align 8
  %5 = alloca ptr, align 8
  store ptr %0, ptr %3, align 8
  store ptr %1, ptr %4, align 8
  %6 = load ptr, ptr %3, align 8
  %7 = call noundef ptr @_ZN4llvm17AnalysisInfoMixinINS_12LoopAnalysisEE2IDEv()
  %8 = load ptr, ptr %4, align 8
  %9 = call noundef nonnull align 8 dereferenceable(8) ptr @_ZN4llvm15AnalysisManagerINS_8FunctionEJEE13getResultImplEPNS_11AnalysisKeyERS1_(ptr noundef nonnull align 8 dereferenceable(72) %6, ptr noundef %7, ptr noundef nonnull align 8 dereferenceable(136) %8)
  store ptr %9, ptr %5, align 8
  %10 = load ptr, ptr %5, align 8
  %11 = getelementptr inbounds nuw %"struct.llvm::detail::AnalysisResultModel.257", ptr %10, i32 0, i32 1
  ret ptr %11
}

; Function Attrs: mustprogress nounwind uwtable
define dso_local void @_ZN4llvm25InnerAnalysisManagerProxyINS_15AnalysisManagerINS_4LoopEJRNS_27LoopStandardAnalysisResultsEEEENS_8FunctionEJEE3runERS6_RNS1_IS6_JEEE(ptr dead_on_unwind noalias writable sret(%"class.llvm::InnerAnalysisManagerProxy<llvm::AnalysisManager<Loop, LoopStandardAnalysisResults &>, llvm::Function>::Result") align 8 %0, ptr noundef nonnull align 8 dereferenceable(8) %1, ptr noundef nonnull align 8 dereferenceable(136) %2, ptr noundef nonnull align 8 dereferenceable(72) %3) #0 align 2 {
  %5 = alloca ptr, align 8
  %6 = alloca ptr, align 8
  %7 = alloca ptr, align 8
  %8 = alloca ptr, align 8
  store ptr %0, ptr %5, align 8
  store ptr %1, ptr %6, align 8
  store ptr %2, ptr %7, align 8
  store ptr %3, ptr %8, align 8
  %9 = load ptr, ptr %6, align 8
  %10 = getelementptr inbounds nuw %"class.llvm::InnerAnalysisManagerProxy", ptr %9, i32 0, i32 0
  %11 = load ptr, ptr %10, align 8
  %12 = load ptr, ptr %8, align 8
  %13 = load ptr, ptr %7, align 8
  %14 = call noundef nonnull align 8 dereferenceable(144) ptr @_ZN4llvm15AnalysisManagerINS_8FunctionEJEE9getResultINS_12LoopAnalysisEEERNT_6ResultERS1_(ptr noundef nonnull align 8 dereferenceable(72) %12, ptr noundef nonnull align 8 dereferenceable(136) %13)
  call void @_ZN4llvm25InnerAnalysisManagerProxyINS_15AnalysisManagerINS_4LoopEJRNS_27LoopStandardAnalysisResultsEEEENS_8FunctionEJEE6ResultC2ERS5_RNS_8LoopInfoE(ptr noundef nonnull align 8 dereferenceable(17) %0, ptr noundef nonnull align 8 dereferenceable(72) %11, ptr noundef nonnull align 8 dereferenceable(144) %14)
  ret void
}