; Function Attrs: mustprogress nounwind uwtable
define dso_local void @_ZN4llvm25InnerAnalysisManagerProxyINS_15AnalysisManagerINS_4LoopEJRNS_27LoopStandardAnalysisResultsEEEENS_8FunctionEJEE3runERS6_RNS1_IS6_JEEE(ptr dead_on_unwind noalias writable writeonly sret(%"class.llvm::InnerAnalysisManagerProxy<llvm::AnalysisManager<Loop, LoopStandardAnalysisResults &>, llvm::Function>::Result") align 8 captures(none) initializes((0, 17)) %0, ptr noundef nonnull readonly align 8 captures(none) dereferenceable(8) %1, ptr noundef nonnull align 8 dereferenceable(136) %2, ptr noundef nonnull align 8 dereferenceable(72) %3) local_unnamed_addr #0 align 2 {
  %5 = load ptr, ptr %1, align 8
  %6 = tail call noundef nonnull align 8 dereferenceable(8) ptr @_ZN4llvm15AnalysisManagerINS_8FunctionEJEE13getResultImplEPNS_11AnalysisKeyERS1_(ptr noundef nonnull align 8 dereferenceable(72) %3, ptr noundef nonnull @_ZN4llvm12LoopAnalysis3KeyE, ptr noundef nonnull align 8 dereferenceable(136) %2) #13
  %7 = getelementptr inbounds nuw i8, ptr %6, i64 8
  store ptr %5, ptr %0, align 8
  %8 = getelementptr inbounds nuw i8, ptr %0, i64 8
  store ptr %7, ptr %8, align 8
  %9 = getelementptr inbounds nuw i8, ptr %0, i64 16
  store i8 0, ptr %9, align 8
  ret void
}